Certificate:
    Data:
        Version: 3 (0x2)
        Serial Number: 4098 (0x1002)
    Signature Algorithm: ecdsa-with-SHA256
        Issuer: C=KR, ST=Seoul, L=Seoul, O=Root CA, OU=Root CA, CN=Root Certificate Authority/emailAddress=root@ca.com
        Validity
            Not Before: Dec  7 08:34:11 2019 GMT
            Not After : Dec  5 08:34:11 2024 GMT
        Subject: CN=Alice Client, ST=Seoul, C=KR/emailAddress=client@alice.com, O=MMLAB, OU=MMLAB
        Subject Public Key Info:
            Public Key Algorithm: id-ecPublicKey
                Public-Key: (256 bit)
                pub: 
                    04:c5:c3:8a:c3:05:c4:52:61:1d:3f:a1:0f:93:cb:
                    e1:68:a5:44:5d:70:9c:59:3e:93:8b:c1:28:02:c1:
                    e7:02:28:31:49:f1:05:25:14:e7:c5:c9:e3:d0:14:
                    3a:da:06:6b:4d:5b:b5:42:06:e2:7d:2d:56:76:36:
                    0e:45:b5:48:6d
                ASN1 OID: prime256v1
                NIST CURVE: P-256
        X509v3 extensions:
            X509v3 Basic Constraints: critical
                CA:FALSE
            X509v3 Subject Key Identifier: 
                38:FD:9D:B3:EB:8F:A1:DD:18:E9:ED:1D:5C:21:53:FB:28:D7:64:03
            X509v3 Authority Key Identifier: 
                keyid:5C:06:85:FE:FE:DD:91:59:CD:A6:90:33:91:7C:1C:BF:41:B7:21:C6

            X509v3 Key Usage: 
                Digital Signature, Key Encipherment
            X509v3 CRL Distribution Points: 

                Full Name:
                  URI:http://pki.rootca.com/rootca.crl

                Full Name:
                  URI:http://pki.backup.com/rootca.crl

            X509v3 Subject Alternative Name: 
                DNS:*.alice.com, DNS:*.bob.org
            Authority Information Access: 
                CA Issuers - URI:http://pki.rootca.com/rootca.crt
                CA Issuers - URI:http://pki.backup.com/rootca.crt
                OCSP - URI:http://pki.rootca.com/ocsp/
                OCSP - URI:http://pki.backup.com/ocsp/

    Signature Algorithm: ecdsa-with-SHA256
         30:46:02:21:00:e1:5f:29:9f:4b:f2:6e:9e:1e:9e:52:26:78:
         81:75:60:9c:26:8a:02:dd:38:d6:ca:1f:da:ea:ea:4d:a0:bb:
         4f:02:21:00:89:87:25:67:4e:fe:02:b6:54:21:15:c1:48:77:
         57:4f:9c:21:aa:d4:d4:af:57:65:45:1b:88:0f:c8:97:50:64
-----BEGIN CERTIFICATE-----
MIIDmTCCAz6gAwIBAgICEAIwCgYIKoZIzj0EAwIwgZIxCzAJBgNVBAYTAktSMQ4w
DAYDVQQIDAVTZW91bDEOMAwGA1UEBwwFU2VvdWwxEDAOBgNVBAoMB1Jvb3QgQ0Ex
EDAOBgNVBAsMB1Jvb3QgQ0ExIzAhBgNVBAMMGlJvb3QgQ2VydGlmaWNhdGUgQXV0
aG9yaXR5MRowGAYJKoZIhvcNAQkBFgtyb290QGNhLmNvbTAeFw0xOTEyMDcwODM0
MTFaFw0yNDEyMDUwODM0MTFaMHUxFTATBgNVBAMMDEFsaWNlIENsaWVudDEOMAwG
A1UECAwFU2VvdWwxCzAJBgNVBAYTAktSMR8wHQYJKoZIhvcNAQkBFhBjbGllbnRA
YWxpY2UuY29tMQ4wDAYDVQQKDAVNTUxBQjEOMAwGA1UECwwFTU1MQUIwWTATBgcq
hkjOPQIBBggqhkjOPQMBBwNCAATFw4rDBcRSYR0/oQ+Ty+FopURdcJxZPpOLwSgC
wecCKDFJ8QUlFOfFyePQFDraBmtNW7VCBuJ9LVZ2Ng5FtUhto4IBnjCCAZowDAYD
VR0TAQH/BAIwADAdBgNVHQ4EFgQUOP2ds+uPod0Y6e0dXCFT+yjXZAMwHwYDVR0j
BBgwFoAUXAaF/v7dkVnNppAzkXwcv0G3IcYwCwYDVR0PBAQDAgWgMFkGA1UdHwRS
MFAwJqAkoCKGIGh0dHA6Ly9wa2kucm9vdGNhLmNvbS9yb290Y2EuY3JsMCagJKAi
hiBodHRwOi8vcGtpLmJhY2t1cC5jb20vcm9vdGNhLmNybDAhBgNVHREEGjAYggsq
LmFsaWNlLmNvbYIJKi5ib2Iub3JnMIG+BggrBgEFBQcBAQSBsTCBrjAsBggrBgEF
BQcwAoYgaHR0cDovL3BraS5yb290Y2EuY29tL3Jvb3RjYS5jcnQwLAYIKwYBBQUH
MAKGIGh0dHA6Ly9wa2kuYmFja3VwLmNvbS9yb290Y2EuY3J0MCcGCCsGAQUFBzAB
hhtodHRwOi8vcGtpLnJvb3RjYS5jb20vb2NzcC8wJwYIKwYBBQUHMAGGG2h0dHA6
Ly9wa2kuYmFja3VwLmNvbS9vY3NwLzAKBggqhkjOPQQDAgNJADBGAiEA4V8pn0vy
bp4enlImeIF1YJwmigLdONbKH9rq6k2gu08CIQCJhyVnTv4CtlQhFcFId1dPnCGq
1NSvV2VFG4gPyJdQZA==
-----END CERTIFICATE-----
